target datalayout = "e-m:e-p270:32:32-p271:32:32-p272:64:64-i64:64-i128:128-f80:128-n8:16:32:64-S128"
target triple = "x86_64-pc-linux-gnu"

%"class.std::basic_string_view" = type { i64, ptr }
%"struct.absl::cord_internal::CordRepExternal" = type { %"struct.absl::cord_internal::CordRep", ptr, ptr }
%"struct.absl::cord_internal::CordRep" = type { i64, %"class.absl::cord_internal::RefcountAndFlags", i8, [3 x i8] }
%"class.absl::cord_internal::RefcountAndFlags" = type { %"struct.std::atomic" }
%"struct.std::atomic" = type { %"struct.std::__atomic_base" }
%"struct.std::__atomic_base" = type { i32 }
%"struct.absl::cord_internal::CordRepCrc" = type { %"struct.absl::cord_internal::CordRep", ptr, %"class.absl::crc_internal::CrcCordState" }
%"class.absl::crc_internal::CrcCordState" = type { ptr }
%"struct.absl::cord_internal::CordRepSubstring" = type { %"struct.absl::cord_internal::CordRep", i64, ptr }

; Function Attrs: inlinehint mustprogress nounwind uwtable
define linkonce_odr dso_local noundef ptr @_ZN4absl13cord_internal7CordRep3crcEv(ptr noundef nonnull align 8 dereferenceable(16) %0) #8 comdat align 2 {
  %2 = alloca ptr, align 8
  store ptr %0, ptr %2, align 8, !tbaa !11
  %3 = load ptr, ptr %2, align 8
  ret ptr %3
}

; Function Attrs: mustprogress nounwind uwtable
define linkonce_odr dso_local noundef zeroext i1 @_ZNK4absl13cord_internal7CordRep5IsCrcEv(ptr noundef nonnull align 8 dereferenceable(16) %0) #5 comdat align 2 {
  %2 = alloca ptr, align 8
  store ptr %0, ptr %2, align 8, !tbaa !11
  %3 = load ptr, ptr %2, align 8
  %4 = getelementptr inbounds nuw %"struct.absl::cord_internal::CordRep", ptr %3, i32 0, i32 2
  %5 = load i8, ptr %4, align 4, !tbaa !39
  %6 = zext i8 %5 to i32
  %7 = icmp eq i32 %6, 2
  ret i1 %7
}

; Function Attrs: inlinehint mustprogress nounwind uwtable
define linkonce_odr dso_local noundef ptr @_ZN4absl13cord_internal7CordRep9substringEv(ptr noundef nonnull align 8 dereferenceable(16) %0) #8 comdat align 2 {
  %2 = alloca ptr, align 8
  store ptr %0, ptr %2, align 8, !tbaa !11
  %3 = load ptr, ptr %2, align 8
  ret ptr %3
}

; Function Attrs: mustprogress nounwind uwtable
define linkonce_odr dso_local noundef zeroext i1 @_ZNK4absl13cord_internal7CordRep11IsSubstringEv(ptr noundef nonnull align 8 dereferenceable(16) %0) #5 comdat align 2 {
  %2 = alloca ptr, align 8
  store ptr %0, ptr %2, align 8, !tbaa !11
  %3 = load ptr, ptr %2, align 8
  %4 = getelementptr inbounds nuw %"struct.absl::cord_internal::CordRep", ptr %3, i32 0, i32 2
  %5 = load i8, ptr %4, align 4, !tbaa !39
  %6 = zext i8 %5 to i32
  %7 = icmp eq i32 %6, 1
  ret i1 %7
}

; Function Attrs: inlinehint mustprogress nounwind uwtable
define linkonce_odr dso_local noundef ptr @_ZN4absl13cord_internal7CordRep5btreeEv(ptr noundef nonnull align 8 dereferenceable(16) %0) #8 comdat align 2 {
  %2 = alloca ptr, align 8
  store ptr %0, ptr %2, align 8, !tbaa !11
  %3 = load ptr, ptr %2, align 8
  ret ptr %3
}

; Function Attrs: mustprogress nounwind uwtable
define linkonce_odr dso_local noundef zeroext i1 @_ZNK4absl13cord_internal7CordRep7IsBtreeEv(ptr noundef nonnull align 8 dereferenceable(16) %0) #5 comdat align 2 {
  %2 = alloca ptr, align 8
  store ptr %0, ptr %2, align 8, !tbaa !11
  %3 = load ptr, ptr %2, align 8
  %4 = getelementptr inbounds nuw %"struct.absl::cord_internal::CordRep", ptr %3, i32 0, i32 2
  %5 = load i8, ptr %4, align 4, !tbaa !39
  %6 = zext i8 %5 to i32
  %7 = icmp eq i32 %6, 3
  ret i1 %7
}

; Function Attrs: inlinehint mustprogress nounwind uwtable
define linkonce_odr dso_local noundef ptr @_ZN4absl13cord_internal7CordRep8externalEv(ptr noundef nonnull align 8 dereferenceable(16) %0) #8 comdat align 2 {
  %2 = alloca ptr, align 8
  store ptr %0, ptr %2, align 8, !tbaa !11
  %3 = load ptr, ptr %2, align 8
  ret ptr %3
}

; Function Attrs: mustprogress nounwind uwtable
define linkonce_odr dso_local noundef zeroext i1 @_ZNK4absl13cord_internal7CordRep10IsExternalEv(ptr noundef nonnull align 8 dereferenceable(16) %0) #5 comdat align 2 {
  %2 = alloca ptr, align 8
  store ptr %0, ptr %2, align 8, !tbaa !11
  %3 = load ptr, ptr %2, align 8
  %4 = getelementptr inbounds nuw %"struct.absl::cord_internal::CordRep", ptr %3, i32 0, i32 2
  %5 = load i8, ptr %4, align 4, !tbaa !39
  %6 = zext i8 %5 to i32
  %7 = icmp eq i32 %6, 5
  ret i1 %7
}

; Function Attrs: mustprogress nounwind uwtable
define linkonce_odr dso_local void @_ZNSt17basic_string_viewIcSt11char_traitsIcEEC2EPKcm(ptr noundef nonnull align 8 dereferenceable(16) %0, ptr noundef %1, i64 noundef %2) unnamed_addr #5 comdat align 2 {
  %4 = alloca ptr, align 8
  %5 = alloca ptr, align 8
  %6 = alloca i64, align 8
  store ptr %0, ptr %4, align 8, !tbaa !40
  store ptr %1, ptr %5, align 8, !tbaa !22
  store i64 %2, ptr %6, align 8, !tbaa !23
  %7 = load ptr, ptr %4, align 8
  %8 = getelementptr inbounds nuw %"class.std::basic_string_view", ptr %7, i32 0, i32 0
  %9 = load i64, ptr %6, align 8, !tbaa !23
  store i64 %9, ptr %8, align 8, !tbaa !42
  %10 = getelementptr inbounds nuw %"class.std::basic_string_view", ptr %7, i32 0, i32 1
  %11 = load ptr, ptr %5, align 8, !tbaa !22
  store ptr %11, ptr %10, align 8, !tbaa !44
  ret void
}

; Function Attrs: mustprogress nounwind uwtable
define linkonce_odr dso_local noundef ptr @_ZN4absl13cord_internal11CordRepFlat4DataEv(ptr noundef nonnull align 8 dereferenceable(16) %0) #5 comdat align 2 {
  %2 = alloca ptr, align 8
  store ptr %0, ptr %2, align 8, !tbaa !45
  %3 = load ptr, ptr %2, align 8
  %4 = getelementptr inbounds nuw %"struct.absl::cord_internal::CordRep", ptr %3, i32 0, i32 3
  %5 = getelementptr inbounds [3 x i8], ptr %4, i64 0, i64 0
  ret ptr %5
}

; Function Attrs: inlinehint mustprogress nounwind uwtable
define linkonce_odr dso_local noundef ptr @_ZN4absl13cord_internal7CordRep4flatEv(ptr noundef nonnull align 8 dereferenceable(16) %0) #8 comdat align 2 {
  %2 = alloca ptr, align 8
  store ptr %0, ptr %2, align 8, !tbaa !11
  %3 = load ptr, ptr %2, align 8
  ret ptr %3
}

; Function Attrs: mustprogress nounwind uwtable
define linkonce_odr dso_local noundef zeroext i1 @_ZNK4absl13cord_internal7CordRep6IsFlatEv(ptr noundef nonnull align 8 dereferenceable(16) %0) #5 comdat align 2 {
  %2 = alloca ptr, align 8
  store ptr %0, ptr %2, align 8, !tbaa !11
  %3 = load ptr, ptr %2, align 8
  %4 = getelementptr inbounds nuw %"struct.absl::cord_internal::CordRep", ptr %3, i32 0, i32 2
  %5 = load i8, ptr %4, align 4, !tbaa !39
  %6 = zext i8 %5 to i32
  %7 = icmp sge i32 %6, 6
  ret i1 %7
}

; Function Attrs: inlinehint mustprogress uwtable
define linkonce_odr dso_local noundef ptr @_ZN4absl13cord_internal11SkipCrcNodeEPNS0_7CordRepE(ptr noundef %0) #6 comdat {
  %2 = alloca ptr, align 8
  %3 = alloca ptr, align 8
  store ptr %0, ptr %3, align 8, !tbaa !11
  %4 = load ptr, ptr %3, align 8, !tbaa !11
  %5 = call noundef zeroext i1 @_ZNK4absl13cord_internal7CordRep5IsCrcEv(ptr noundef nonnull align 8 dereferenceable(16) %4)
  %6 = zext i1 %5 to i64
  %7 = call i64 @llvm.expect.i64(i64 %6, i64 0)
  %8 = icmp ne i64 %7, 0
  br i1 %8, label %9, label %14

9:                                                ; preds = %1
  %10 = load ptr, ptr %3, align 8, !tbaa !11
  %11 = call noundef ptr @_ZN4absl13cord_internal7CordRep3crcEv(ptr noundef nonnull align 8 dereferenceable(16) %10)
  %12 = getelementptr inbounds nuw %"struct.absl::cord_internal::CordRepCrc", ptr %11, i32 0, i32 1
  %13 = load ptr, ptr %12, align 8, !tbaa !61
  store ptr %13, ptr %2, align 8
  br label %16

14:                                               ; preds = %1
  %15 = load ptr, ptr %3, align 8, !tbaa !11
  store ptr %15, ptr %2, align 8
  br label %16

16:                                               ; preds = %14, %9
  %17 = load ptr, ptr %2, align 8
  ret ptr %17
}

; Function Attrs: mustprogress nounwind uwtable
define linkonce_odr dso_local void @_ZNSt17basic_string_viewIcSt11char_traitsIcEEC2Ev(ptr noundef nonnull align 8 dereferenceable(16) %0) unnamed_addr #5 comdat align 2 {
  %2 = alloca ptr, align 8
  store ptr %0, ptr %2, align 8, !tbaa !40
  %3 = load ptr, ptr %2, align 8
  %4 = getelementptr inbounds nuw %"class.std::basic_string_view", ptr %3, i32 0, i32 0
  store i64 0, ptr %4, align 8, !tbaa !42
  %5 = getelementptr inbounds nuw %"class.std::basic_string_view", ptr %3, i32 0, i32 1
  store ptr null, ptr %5, align 8, !tbaa !44
  ret void
}

; Function Attrs: mustprogress uwtable
define dso_local noundef zeroext i1 @_ZN4absl4Cord10GetFlatAuxEPNS_13cord_internal7CordRepEPSt17basic_string_viewIcSt11char_traitsIcEE(ptr noundef %0, ptr noundef %1) #4 align 2 {
  %3 = alloca i1, align 1
  %4 = alloca ptr, align 8
  %5 = alloca ptr, align 8
  %6 = alloca %"class.std::basic_string_view", align 8
  %7 = alloca %"class.std::basic_string_view", align 8
  %8 = alloca %"class.std::basic_string_view", align 8
  %9 = alloca ptr, align 8
  %10 = alloca %"class.std::basic_string_view", align 8
  %11 = alloca i32, align 4
  %12 = alloca %"class.std::basic_string_view", align 8
  store ptr %0, ptr %4, align 8, !tbaa !11
  store ptr %1, ptr %5, align 8, !tbaa !40
  %13 = load ptr, ptr %4, align 8, !tbaa !11
  %14 = getelementptr inbounds nuw %"struct.absl::cord_internal::CordRep", ptr %13, i32 0, i32 0
  %15 = load i64, ptr %14, align 8, !tbaa !38
  %16 = icmp eq i64 %15, 0
  br i1 %16, label %17, label %19

17:                                               ; preds = %2
  call void @llvm.lifetime.start.p0(i64 16, ptr %6) #3
  call void @_ZNSt17basic_string_viewIcSt11char_traitsIcEEC2Ev(ptr noundef nonnull align 8 dereferenceable(16) %6) #3
  %18 = load ptr, ptr %5, align 8, !tbaa !40
  call void @llvm.memcpy.p0.p0.i64(ptr align 8 %18, ptr align 8 %6, i64 16, i1 false), !tbaa.struct !24
  call void @llvm.lifetime.end.p0(i64 16, ptr %6) #3
  store i1 true, ptr %3, align 1
  br label %117

19:                                               ; preds = %2
  %20 = load ptr, ptr %4, align 8, !tbaa !11
  %21 = call noundef ptr @_ZN4absl13cord_internal11SkipCrcNodeEPNS0_7CordRepE(ptr noundef %20)
  store ptr %21, ptr %4, align 8, !tbaa !11
  %22 = load ptr, ptr %4, align 8, !tbaa !11
  %23 = call noundef zeroext i1 @_ZNK4absl13cord_internal7CordRep6IsFlatEv(ptr noundef nonnull align 8 dereferenceable(16) %22)
  br i1 %23, label %24, label %32

24:                                               ; preds = %19
  call void @llvm.lifetime.start.p0(i64 16, ptr %7) #3
  %25 = load ptr, ptr %4, align 8, !tbaa !11
  %26 = call noundef ptr @_ZN4absl13cord_internal7CordRep4flatEv(ptr noundef nonnull align 8 dereferenceable(16) %25)
  %27 = call noundef ptr @_ZN4absl13cord_internal11CordRepFlat4DataEv(ptr noundef nonnull align 8 dereferenceable(16) %26)
  %28 = load ptr, ptr %4, align 8, !tbaa !11
  %29 = getelementptr inbounds nuw %"struct.absl::cord_internal::CordRep", ptr %28, i32 0, i32 0
  %30 = load i64, ptr %29, align 8, !tbaa !38
  call void @_ZNSt17basic_string_viewIcSt11char_traitsIcEEC2EPKcm(ptr noundef nonnull align 8 dereferenceable(16) %7, ptr noundef %27, i64 noundef %30) #3
  %31 = load ptr, ptr %5, align 8, !tbaa !40
  call void @llvm.memcpy.p0.p0.i64(ptr align 8 %31, ptr align 8 %7, i64 16, i1 false), !tbaa.struct !24
  call void @llvm.lifetime.end.p0(i64 16, ptr %7) #3
  store i1 true, ptr %3, align 1
  br label %117

32:                                               ; preds = %19
  %33 = load ptr, ptr %4, align 8, !tbaa !11
  %34 = call noundef zeroext i1 @_ZNK4absl13cord_internal7CordRep10IsExternalEv(ptr noundef nonnull align 8 dereferenceable(16) %33)
  br i1 %34, label %35, label %44

35:                                               ; preds = %32
  call void @llvm.lifetime.start.p0(i64 16, ptr %8) #3
  %36 = load ptr, ptr %4, align 8, !tbaa !11
  %37 = call noundef ptr @_ZN4absl13cord_internal7CordRep8externalEv(ptr noundef nonnull align 8 dereferenceable(16) %36)
  %38 = getelementptr inbounds nuw %"struct.absl::cord_internal::CordRepExternal", ptr %37, i32 0, i32 1
  %39 = load ptr, ptr %38, align 8, !tbaa !27
  %40 = load ptr, ptr %4, align 8, !tbaa !11
  %41 = getelementptr inbounds nuw %"struct.absl::cord_internal::CordRep", ptr %40, i32 0, i32 0
  %42 = load i64, ptr %41, align 8, !tbaa !38
  call void @_ZNSt17basic_string_viewIcSt11char_traitsIcEEC2EPKcm(ptr noundef nonnull align 8 dereferenceable(16) %8, ptr noundef %39, i64 noundef %42) #3
  %43 = load ptr, ptr %5, align 8, !tbaa !40
  call void @llvm.memcpy.p0.p0.i64(ptr align 8 %43, ptr align 8 %8, i64 16, i1 false), !tbaa.struct !24
  call void @llvm.lifetime.end.p0(i64 16, ptr %8) #3
  store i1 true, ptr %3, align 1
  br label %117

44:                                               ; preds = %32
  %45 = load ptr, ptr %4, align 8, !tbaa !11
  %46 = call noundef zeroext i1 @_ZNK4absl13cord_internal7CordRep7IsBtreeEv(ptr noundef nonnull align 8 dereferenceable(16) %45)
  br i1 %46, label %47, label %52

47:                                               ; preds = %44
  %48 = load ptr, ptr %4, align 8, !tbaa !11
  %49 = call noundef ptr @_ZN4absl13cord_internal7CordRep5btreeEv(ptr noundef nonnull align 8 dereferenceable(16) %48)
  %50 = load ptr, ptr %5, align 8, !tbaa !40
  %51 = call noundef zeroext i1 @_ZNK4absl13cord_internal12CordRepBtree6IsFlatEPSt17basic_string_viewIcSt11char_traitsIcEE(ptr noundef nonnull align 8 dereferenceable(64) %49, ptr noundef %50)
  store i1 %51, ptr %3, align 1
  br label %117

52:                                               ; preds = %44
  %53 = load ptr, ptr %4, align 8, !tbaa !11
  %54 = call noundef zeroext i1 @_ZNK4absl13cord_internal7CordRep11IsSubstringEv(ptr noundef nonnull align 8 dereferenceable(16) %53)
  br i1 %54, label %55, label %113

55:                                               ; preds = %52
  call void @llvm.lifetime.start.p0(i64 8, ptr %9) #3
  %56 = load ptr, ptr %4, align 8, !tbaa !11
  %57 = call noundef ptr @_ZN4absl13cord_internal7CordRep9substringEv(ptr noundef nonnull align 8 dereferenceable(16) %56)
  %58 = getelementptr inbounds nuw %"struct.absl::cord_internal::CordRepSubstring", ptr %57, i32 0, i32 2
  %59 = load ptr, ptr %58, align 8, !tbaa !90
  store ptr %59, ptr %9, align 8, !tbaa !11
  %60 = load ptr, ptr %9, align 8, !tbaa !11
  %61 = call noundef zeroext i1 @_ZNK4absl13cord_internal7CordRep6IsFlatEv(ptr noundef nonnull align 8 dereferenceable(16) %60)
  br i1 %61, label %62, label %75

62:                                               ; preds = %55
  call void @llvm.lifetime.start.p0(i64 16, ptr %10) #3
  %63 = load ptr, ptr %9, align 8, !tbaa !11
  %64 = call noundef ptr @_ZN4absl13cord_internal7CordRep4flatEv(ptr noundef nonnull align 8 dereferenceable(16) %63)
  %65 = call noundef ptr @_ZN4absl13cord_internal11CordRepFlat4DataEv(ptr noundef nonnull align 8 dereferenceable(16) %64)
  %66 = load ptr, ptr %4, align 8, !tbaa !11
  %67 = call noundef ptr @_ZN4absl13cord_internal7CordRep9substringEv(ptr noundef nonnull align 8 dereferenceable(16) %66)
  %68 = getelementptr inbounds nuw %"struct.absl::cord_internal::CordRepSubstring", ptr %67, i32 0, i32 1
  %69 = load i64, ptr %68, align 8, !tbaa !79
  %70 = getelementptr inbounds nuw i8, ptr %65, i64 %69
  %71 = load ptr, ptr %4, align 8, !tbaa !11
  %72 = getelementptr inbounds nuw %"struct.absl::cord_internal::CordRep", ptr %71, i32 0, i32 0
  %73 = load i64, ptr %72, align 8, !tbaa !38
  call void @_ZNSt17basic_string_viewIcSt11char_traitsIcEEC2EPKcm(ptr noundef nonnull align 8 dereferenceable(16) %10, ptr noundef %70, i64 noundef %73) #3
  %74 = load ptr, ptr %5, align 8, !tbaa !40
  call void @llvm.memcpy.p0.p0.i64(ptr align 8 %74, ptr align 8 %10, i64 16, i1 false), !tbaa.struct !24
  call void @llvm.lifetime.end.p0(i64 16, ptr %10) #3
  store i1 true, ptr %3, align 1
  store i32 1, ptr %11, align 4
  br label %110

75:                                               ; preds = %55
  %76 = load ptr, ptr %9, align 8, !tbaa !11
  %77 = call noundef zeroext i1 @_ZNK4absl13cord_internal7CordRep10IsExternalEv(ptr noundef nonnull align 8 dereferenceable(16) %76)
  br i1 %77, label %78, label %92

78:                                               ; preds = %75
  call void @llvm.lifetime.start.p0(i64 16, ptr %12) #3
  %79 = load ptr, ptr %9, align 8, !tbaa !11
  %80 = call noundef ptr @_ZN4absl13cord_internal7CordRep8externalEv(ptr noundef nonnull align 8 dereferenceable(16) %79)
  %81 = getelementptr inbounds nuw %"struct.absl::cord_internal::CordRepExternal", ptr %80, i32 0, i32 1
  %82 = load ptr, ptr %81, align 8, !tbaa !27
  %83 = load ptr, ptr %4, align 8, !tbaa !11
  %84 = call noundef ptr @_ZN4absl13cord_internal7CordRep9substringEv(ptr noundef nonnull align 8 dereferenceable(16) %83)
  %85 = getelementptr inbounds nuw %"struct.absl::cord_internal::CordRepSubstring", ptr %84, i32 0, i32 1
  %86 = load i64, ptr %85, align 8, !tbaa !79
  %87 = getelementptr inbounds nuw i8, ptr %82, i64 %86
  %88 = load ptr, ptr %4, align 8, !tbaa !11
  %89 = getelementptr inbounds nuw %"struct.absl::cord_internal::CordRep", ptr %88, i32 0, i32 0
  %90 = load i64, ptr %89, align 8, !tbaa !38
  call void @_ZNSt17basic_string_viewIcSt11char_traitsIcEEC2EPKcm(ptr noundef nonnull align 8 dereferenceable(16) %12, ptr noundef %87, i64 noundef %90) #3
  %91 = load ptr, ptr %5, align 8, !tbaa !40
  call void @llvm.memcpy.p0.p0.i64(ptr align 8 %91, ptr align 8 %12, i64 16, i1 false), !tbaa.struct !24
  call void @llvm.lifetime.end.p0(i64 16, ptr %12) #3
  store i1 true, ptr %3, align 1
  store i32 1, ptr %11, align 4
  br label %110

92:                                               ; preds = %75
  %93 = load ptr, ptr %9, align 8, !tbaa !11
  %94 = call noundef zeroext i1 @_ZNK4absl13cord_internal7CordRep7IsBtreeEv(ptr noundef nonnull align 8 dereferenceable(16) %93)
  br i1 %94, label %95, label %107

95:                                               ; preds = %92
  %96 = load ptr, ptr %9, align 8, !tbaa !11
  %97 = call noundef ptr @_ZN4absl13cord_internal7CordRep5btreeEv(ptr noundef nonnull align 8 dereferenceable(16) %96)
  %98 = load ptr, ptr %4, align 8, !tbaa !11
  %99 = call noundef ptr @_ZN4absl13cord_internal7CordRep9substringEv(ptr noundef nonnull align 8 dereferenceable(16) %98)
  %100 = getelementptr inbounds nuw %"struct.absl::cord_internal::CordRepSubstring", ptr %99, i32 0, i32 1
  %101 = load i64, ptr %100, align 8, !tbaa !79
  %102 = load ptr, ptr %4, align 8, !tbaa !11
  %103 = getelementptr inbounds nuw %"struct.absl::cord_internal::CordRep", ptr %102, i32 0, i32 0
  %104 = load i64, ptr %103, align 8, !tbaa !38
  %105 = load ptr, ptr %5, align 8, !tbaa !40
  %106 = call noundef zeroext i1 @_ZNK4absl13cord_internal12CordRepBtree6IsFlatEmmPSt17basic_string_viewIcSt11char_traitsIcEE(ptr noundef nonnull align 8 dereferenceable(64) %97, i64 noundef %101, i64 noundef %104, ptr noundef %105)
  store i1 %106, ptr %3, align 1
  store i32 1, ptr %11, align 4
  br label %110

107:                                              ; preds = %92
  br label %108

108:                                              ; preds = %107
  br label %109

109:                                              ; preds = %108
  store i32 0, ptr %11, align 4
  br label %110

110:                                              ; preds = %109, %95, %78, %62
  call void @llvm.lifetime.end.p0(i64 8, ptr %9) #3
  %111 = load i32, ptr %11, align 4
  switch i32 %111, label %119 [
    i32 0, label %112
    i32 1, label %117
  ]

112:                                              ; preds = %110
  br label %113

113:                                              ; preds = %112, %52
  br label %114

114:                                              ; preds = %113
  br label %115

115:                                              ; preds = %114
  br label %116

116:                                              ; preds = %115
  store i1 false, ptr %3, align 1
  br label %117

117:                                              ; preds = %116, %110, %47, %35, %24, %17
  %118 = load i1, ptr %3, align 1
  ret i1 %118

119:                                              ; preds = %110
  unreachable
}