; Function Attrs: mustprogress uwtable
define dso_local noundef zeroext i1 @_ZN4absl4Cord10GetFlatAuxEPNS_13cord_internal7CordRepEPSt17basic_string_viewIcSt11char_traitsIcEE(ptr noundef %0, ptr noundef %1) local_unnamed_addr #3 align 2 {
  %3 = load i64, ptr %0, align 8, !tbaa !22
  %4 = icmp eq i64 %3, 0
  br i1 %4, label %5, label %6

5:                                                ; preds = %2
  tail call void @llvm.memset.p0.i64(ptr noundef nonnull align 8 dereferenceable(16) %1, i8 0, i64 16, i1 false)
  br label %.thread

6:                                                ; preds = %2
  %7 = getelementptr inbounds nuw i8, ptr %0, i64 12
  %8 = load i8, ptr %7, align 4, !tbaa !23
  %9 = icmp eq i8 %8, 2
  br i1 %9, label %10, label %_ZN4absl13cord_internal11SkipCrcNodeEPNS0_7CordRepE.exit, !prof !59

10:                                               ; preds = %6
  %11 = getelementptr inbounds nuw i8, ptr %0, i64 16
  %12 = load ptr, ptr %11, align 8, !tbaa !55
  %.phi.trans.insert = getelementptr inbounds nuw i8, ptr %12, i64 12
  %.pre = load i8, ptr %.phi.trans.insert, align 4, !tbaa !23
  br label %_ZN4absl13cord_internal11SkipCrcNodeEPNS0_7CordRepE.exit

_ZN4absl13cord_internal11SkipCrcNodeEPNS0_7CordRepE.exit: ; preds = %6, %10
  %13 = phi i8 [ %.pre, %10 ], [ %8, %6 ]
  %.0.i = phi ptr [ %12, %10 ], [ %0, %6 ]
  %14 = icmp ugt i8 %13, 5
  br i1 %14, label %15, label %18

15:                                               ; preds = %_ZN4absl13cord_internal11SkipCrcNodeEPNS0_7CordRepE.exit
  %16 = getelementptr inbounds nuw i8, ptr %.0.i, i64 13
  %17 = load i64, ptr %.0.i, align 8, !tbaa !22
  store i64 %17, ptr %1, align 8, !tbaa !123
  %.sroa.438.0..sroa_idx = getelementptr inbounds nuw i8, ptr %1, i64 8
  store ptr %16, ptr %.sroa.438.0..sroa_idx, align 8, !tbaa !128
  br label %.thread

18:                                               ; preds = %_ZN4absl13cord_internal11SkipCrcNodeEPNS0_7CordRepE.exit
  switch i8 %13, label %.thread [
    i8 5, label %19
    i8 3, label %23
    i8 1, label %25
  ]

19:                                               ; preds = %18
  %20 = getelementptr inbounds nuw i8, ptr %.0.i, i64 16
  %21 = load ptr, ptr %20, align 8, !tbaa !24
  %22 = load i64, ptr %.0.i, align 8, !tbaa !22
  store i64 %22, ptr %1, align 8, !tbaa !123
  %.sroa.436.0..sroa_idx = getelementptr inbounds nuw i8, ptr %1, i64 8
  store ptr %21, ptr %.sroa.436.0..sroa_idx, align 8, !tbaa !128
  br label %.thread

23:                                               ; preds = %18
  %24 = tail call noundef zeroext i1 @_ZNK4absl13cord_internal12CordRepBtree6IsFlatEPSt17basic_string_viewIcSt11char_traitsIcEE(ptr noundef nonnull align 8 dereferenceable(64) %.0.i, ptr noundef %1)
  br label %.thread

25:                                               ; preds = %18
  %26 = getelementptr inbounds nuw i8, ptr %.0.i, i64 24
  %27 = load ptr, ptr %26, align 8, !tbaa !32
  %28 = getelementptr inbounds nuw i8, ptr %27, i64 12
  %29 = load i8, ptr %28, align 4, !tbaa !23
  %30 = icmp ugt i8 %29, 5
  br i1 %30, label %31, label %37

31:                                               ; preds = %25
  %32 = getelementptr inbounds nuw i8, ptr %27, i64 13
  %33 = getelementptr inbounds nuw i8, ptr %.0.i, i64 16
  %34 = load i64, ptr %33, align 8, !tbaa !110
  %35 = getelementptr inbounds nuw i8, ptr %32, i64 %34
  %36 = load i64, ptr %.0.i, align 8, !tbaa !22
  store i64 %36, ptr %1, align 8, !tbaa !123
  %.sroa.434.0..sroa_idx = getelementptr inbounds nuw i8, ptr %1, i64 8
  store ptr %35, ptr %.sroa.434.0..sroa_idx, align 8, !tbaa !128
  br label %.thread

37:                                               ; preds = %25
  switch i8 %29, label %.thread [
    i8 5, label %38
    i8 3, label %45
  ]

38:                                               ; preds = %37
  %39 = getelementptr inbounds nuw i8, ptr %27, i64 16
  %40 = load ptr, ptr %39, align 8, !tbaa !24
  %41 = getelementptr inbounds nuw i8, ptr %.0.i, i64 16
  %42 = load i64, ptr %41, align 8, !tbaa !110
  %43 = getelementptr inbounds nuw i8, ptr %40, i64 %42
  %44 = load i64, ptr %.0.i, align 8, !tbaa !22
  store i64 %44, ptr %1, align 8, !tbaa !123
  %.sroa.4.0..sroa_idx = getelementptr inbounds nuw i8, ptr %1, i64 8
  store ptr %43, ptr %.sroa.4.0..sroa_idx, align 8, !tbaa !128
  br label %.thread

45:                                               ; preds = %37
  %46 = getelementptr inbounds nuw i8, ptr %.0.i, i64 16
  %47 = load i64, ptr %46, align 8, !tbaa !110
  %48 = load i64, ptr %.0.i, align 8, !tbaa !22
  %49 = tail call noundef zeroext i1 @_ZNK4absl13cord_internal12CordRepBtree6IsFlatEmmPSt17basic_string_viewIcSt11char_traitsIcEE(ptr noundef nonnull align 8 dereferenceable(64) %27, i64 noundef %47, i64 noundef %48, ptr noundef %1)
  br label %.thread

.thread:                                          ; preds = %37, %18, %45, %38, %31, %23, %19, %15, %5
  %.032 = phi i1 [ true, %5 ], [ true, %15 ], [ true, %19 ], [ %24, %23 ], [ %49, %45 ], [ true, %38 ], [ true, %31 ], [ false, %18 ], [ false, %37 ]
  ret i1 %.032
}